; ModuleID = '51/178.c'
source_filename = "51/178.c"
target datalayout = "e-m:e-p270:32:32-p271:32:32-p272:64:64-i64:64-f80:128-n8:16:32:64-S128"
target triple = "x86_64-pc-linux-gnu"

@.str = private unnamed_addr constant [4 x i8] c"%d\0A\00", align 1
@.str.1 = private unnamed_addr constant [3 x i8] c"NO\00", align 1

; Function Attrs: noinline nounwind uwtable
define dso_local i32 @main() #0 {
  %1 = alloca i32, align 4
  %2 = alloca i32, align 4
  %3 = alloca i32, align 4
  %4 = alloca i32, align 4
  %5 = alloca i32, align 4
  %6 = alloca i32, align 4
  %7 = alloca [1000 x i8], align 16
  %8 = alloca [1000 x [5 x i8]], align 16
  %9 = alloca [5 x i8], align 1
  %10 = alloca [1000 x i32], align 16
  store i32 0, i32* %1, align 4
  store i32 0, i32* %6, align 4
  store i32 0, i32* %4, align 4
  br label %11

11:                                               ; preds = %18, %0
  %12 = load i32, i32* %4, align 4
  %13 = icmp slt i32 %12, 1000
  br i1 %13, label %14, label %21

14:                                               ; preds = %11
  %15 = load i32, i32* %4, align 4
  %16 = sext i32 %15 to i64
  %17 = getelementptr inbounds [1000 x i32], [1000 x i32]* %10, i64 0, i64 %16
  store i32 0, i32* %17, align 4
  br label %18

18:                                               ; preds = %14
  %19 = load i32, i32* %4, align 4
  %20 = add nsw i32 %19, 1
  store i32 %20, i32* %4, align 4
  br label %11

21:                                               ; preds = %11
  %22 = call i32 (i8*, ...) @__isoc99_scanf(i8* getelementptr inbounds ([4 x i8], [4 x i8]* @.str, i64 0, i64 0), i32* %3)
  %23 = getelementptr inbounds [1000 x i8], [1000 x i8]* %7, i64 0, i64 0
  %24 = call i32 (i8*, ...) bitcast (i32 (...)* @gets to i32 (i8*, ...)*)(i8* %23)
  store i32 0, i32* %4, align 4
  br label %25

25:                                               ; preds = %68, %21
  %26 = load i32, i32* %4, align 4
  store i32 %26, i32* %5, align 4
  br label %27

27:                                               ; preds = %55, %25
  %28 = load i32, i32* %5, align 4
  %29 = load i32, i32* %4, align 4
  %30 = load i32, i32* %3, align 4
  %31 = add nsw i32 %29, %30
  %32 = sub nsw i32 %31, 1
  %33 = icmp sle i32 %28, %32
  br i1 %33, label %34, label %58

34:                                               ; preds = %27
  %35 = load i32, i32* %5, align 4
  %36 = sext i32 %35 to i64
  %37 = getelementptr inbounds [1000 x i8], [1000 x i8]* %7, i64 0, i64 %36
  %38 = load i8, i8* %37, align 1
  %39 = sext i8 %38 to i32
  %40 = icmp eq i32 %39, 0
  br i1 %40, label %41, label %42

41:                                               ; preds = %34
  br label %71

42:                                               ; preds = %34
  %43 = load i32, i32* %5, align 4
  %44 = sext i32 %43 to i64
  %45 = getelementptr inbounds [1000 x i8], [1000 x i8]* %7, i64 0, i64 %44
  %46 = load i8, i8* %45, align 1
  %47 = load i32, i32* %6, align 4
  %48 = sext i32 %47 to i64
  %49 = getelementptr inbounds [1000 x [5 x i8]], [1000 x [5 x i8]]* %8, i64 0, i64 %48
  %50 = load i32, i32* %5, align 4
  %51 = load i32, i32* %4, align 4
  %52 = sub nsw i32 %50, %51
  %53 = sext i32 %52 to i64
  %54 = getelementptr inbounds [5 x i8], [5 x i8]* %49, i64 0, i64 %53
  store i8 %46, i8* %54, align 1
  br label %55

55:                                               ; preds = %42
  %56 = load i32, i32* %5, align 4
  %57 = add nsw i32 %56, 1
  store i32 %57, i32* %5, align 4
  br label %27

58:                                               ; preds = %27
  %59 = load i32, i32* %6, align 4
  %60 = add nsw i32 %59, 1
  store i32 %60, i32* %6, align 4
  %61 = load i32, i32* %6, align 4
  %62 = sub nsw i32 %61, 1
  %63 = sext i32 %62 to i64
  %64 = getelementptr inbounds [1000 x [5 x i8]], [1000 x [5 x i8]]* %8, i64 0, i64 %63
  %65 = load i32, i32* %3, align 4
  %66 = sext i32 %65 to i64
  %67 = getelementptr inbounds [5 x i8], [5 x i8]* %64, i64 0, i64 %66
  store i8 0, i8* %67, align 1
  br label %68

68:                                               ; preds = %58
  %69 = load i32, i32* %4, align 4
  %70 = add nsw i32 %69, 1
  store i32 %70, i32* %4, align 4
  br label %25

71:                                               ; preds = %41
  store i32 0, i32* %4, align 4
  br label %72

72:                                               ; preds = %106, %71
  %73 = load i32, i32* %4, align 4
  %74 = load i32, i32* %6, align 4
  %75 = sub nsw i32 %74, 1
  %76 = icmp slt i32 %73, %75
  br i1 %76, label %77, label %109

77:                                               ; preds = %72
  %78 = load i32, i32* %4, align 4
  %79 = add nsw i32 %78, 1
  store i32 %79, i32* %5, align 4
  br label %80

80:                                               ; preds = %102, %77
  %81 = load i32, i32* %5, align 4
  %82 = load i32, i32* %6, align 4
  %83 = icmp slt i32 %81, %82
  br i1 %83, label %84, label %105

84:                                               ; preds = %80
  %85 = load i32, i32* %4, align 4
  %86 = sext i32 %85 to i64
  %87 = getelementptr inbounds [1000 x [5 x i8]], [1000 x [5 x i8]]* %8, i64 0, i64 %86
  %88 = getelementptr inbounds [5 x i8], [5 x i8]* %87, i64 0, i64 0
  %89 = load i32, i32* %5, align 4
  %90 = sext i32 %89 to i64
  %91 = getelementptr inbounds [1000 x [5 x i8]], [1000 x [5 x i8]]* %8, i64 0, i64 %90
  %92 = getelementptr inbounds [5 x i8], [5 x i8]* %91, i64 0, i64 0
  %93 = call i32 @strcmp(i8* %88, i8* %92) #4
  %94 = icmp eq i32 %93, 0
  br i1 %94, label %95, label %101

95:                                               ; preds = %84
  %96 = load i32, i32* %4, align 4
  %97 = sext i32 %96 to i64
  %98 = getelementptr inbounds [1000 x i32], [1000 x i32]* %10, i64 0, i64 %97
  %99 = load i32, i32* %98, align 4
  %100 = add nsw i32 %99, 1
  store i32 %100, i32* %98, align 4
  br label %101

101:                                              ; preds = %95, %84
  br label %102

102:                                              ; preds = %101
  %103 = load i32, i32* %5, align 4
  %104 = add nsw i32 %103, 1
  store i32 %104, i32* %5, align 4
  br label %80

105:                                              ; preds = %80
  br label %106

106:                                              ; preds = %105
  %107 = load i32, i32* %4, align 4
  %108 = add nsw i32 %107, 1
  store i32 %108, i32* %4, align 4
  br label %72

109:                                              ; preds = %72
  %110 = load i32, i32* %6, align 4
  %111 = sub nsw i32 %110, 2
  store i32 %111, i32* %4, align 4
  br label %112

112:                                              ; preds = %177, %109
  %113 = load i32, i32* %4, align 4
  %114 = icmp sgt i32 %113, 0
  br i1 %114, label %115, label %180

115:                                              ; preds = %112
  store i32 0, i32* %5, align 4
  br label %116

116:                                              ; preds = %173, %115
  %117 = load i32, i32* %5, align 4
  %118 = load i32, i32* %4, align 4
  %119 = icmp slt i32 %117, %118
  br i1 %119, label %120, label %176

120:                                              ; preds = %116
  %121 = load i32, i32* %5, align 4
  %122 = sext i32 %121 to i64
  %123 = getelementptr inbounds [1000 x i32], [1000 x i32]* %10, i64 0, i64 %122
  %124 = load i32, i32* %123, align 4
  %125 = load i32, i32* %5, align 4
  %126 = add nsw i32 %125, 1
  %127 = sext i32 %126 to i64
  %128 = getelementptr inbounds [1000 x i32], [1000 x i32]* %10, i64 0, i64 %127
  %129 = load i32, i32* %128, align 4
  %130 = icmp slt i32 %124, %129
  br i1 %130, label %131, label %172

131:                                              ; preds = %120
  %132 = getelementptr inbounds [5 x i8], [5 x i8]* %9, i64 0, i64 0
  %133 = load i32, i32* %5, align 4
  %134 = sext i32 %133 to i64
  %135 = getelementptr inbounds [1000 x [5 x i8]], [1000 x [5 x i8]]* %8, i64 0, i64 %134
  %136 = getelementptr inbounds [5 x i8], [5 x i8]* %135, i64 0, i64 0
  %137 = call i8* @strcpy(i8* %132, i8* %136) #5
  %138 = load i32, i32* %5, align 4
  %139 = sext i32 %138 to i64
  %140 = getelementptr inbounds [1000 x [5 x i8]], [1000 x [5 x i8]]* %8, i64 0, i64 %139
  %141 = getelementptr inbounds [5 x i8], [5 x i8]* %140, i64 0, i64 0
  %142 = load i32, i32* %5, align 4
  %143 = add nsw i32 %142, 1
  %144 = sext i32 %143 to i64
  %145 = getelementptr inbounds [1000 x [5 x i8]], [1000 x [5 x i8]]* %8, i64 0, i64 %144
  %146 = getelementptr inbounds [5 x i8], [5 x i8]* %145, i64 0, i64 0
  %147 = call i8* @strcpy(i8* %141, i8* %146) #5
  %148 = load i32, i32* %5, align 4
  %149 = add nsw i32 %148, 1
  %150 = sext i32 %149 to i64
  %151 = getelementptr inbounds [1000 x [5 x i8]], [1000 x [5 x i8]]* %8, i64 0, i64 %150
  %152 = getelementptr inbounds [5 x i8], [5 x i8]* %151, i64 0, i64 0
  %153 = getelementptr inbounds [5 x i8], [5 x i8]* %9, i64 0, i64 0
  %154 = call i8* @strcpy(i8* %152, i8* %153) #5
  %155 = load i32, i32* %5, align 4
  %156 = sext i32 %155 to i64
  %157 = getelementptr inbounds [1000 x i32], [1000 x i32]* %10, i64 0, i64 %156
  %158 = load i32, i32* %157, align 4
  store i32 %158, i32* %2, align 4
  %159 = load i32, i32* %5, align 4
  %160 = add nsw i32 %159, 1
  %161 = sext i32 %160 to i64
  %162 = getelementptr inbounds [1000 x i32], [1000 x i32]* %10, i64 0, i64 %161
  %163 = load i32, i32* %162, align 4
  %164 = load i32, i32* %5, align 4
  %165 = sext i32 %164 to i64
  %166 = getelementptr inbounds [1000 x i32], [1000 x i32]* %10, i64 0, i64 %165
  store i32 %163, i32* %166, align 4
  %167 = load i32, i32* %2, align 4
  %168 = load i32, i32* %5, align 4
  %169 = add nsw i32 %168, 1
  %170 = sext i32 %169 to i64
  %171 = getelementptr inbounds [1000 x i32], [1000 x i32]* %10, i64 0, i64 %170
  store i32 %167, i32* %171, align 4
  br label %172

172:                                              ; preds = %131, %120
  br label %173

173:                                              ; preds = %172
  %174 = load i32, i32* %5, align 4
  %175 = add nsw i32 %174, 1
  store i32 %175, i32* %5, align 4
  br label %116

176:                                              ; preds = %116
  br label %177

177:                                              ; preds = %176
  %178 = load i32, i32* %4, align 4
  %179 = add nsw i32 %178, -1
  store i32 %179, i32* %4, align 4
  br label %112

180:                                              ; preds = %112
  %181 = getelementptr inbounds [1000 x i32], [1000 x i32]* %10, i64 0, i64 0
  %182 = load i32, i32* %181, align 16
  %183 = icmp eq i32 %182, 0
  br i1 %183, label %184, label %186

184:                                              ; preds = %180
  %185 = call i32 (i8*, ...) @printf(i8* getelementptr inbounds ([3 x i8], [3 x i8]* @.str.1, i64 0, i64 0))
  br label %214

186:                                              ; preds = %180
  %187 = getelementptr inbounds [1000 x i32], [1000 x i32]* %10, i64 0, i64 0
  %188 = load i32, i32* %187, align 16
  %189 = add nsw i32 %188, 1
  %190 = call i32 (i8*, ...) @printf(i8* getelementptr inbounds ([4 x i8], [4 x i8]* @.str, i64 0, i64 0), i32 %189)
  %191 = getelementptr inbounds [1000 x [5 x i8]], [1000 x [5 x i8]]* %8, i64 0, i64 0
  %192 = getelementptr inbounds [5 x i8], [5 x i8]* %191, i64 0, i64 0
  %193 = call i32 @puts(i8* %192)
  store i32 1, i32* %4, align 4
  br label %194

194:                                              ; preds = %210, %186
  %195 = load i32, i32* %4, align 4
  %196 = sext i32 %195 to i64
  %197 = getelementptr inbounds [1000 x i32], [1000 x i32]* %10, i64 0, i64 %196
  %198 = load i32, i32* %197, align 4
  %199 = getelementptr inbounds [1000 x i32], [1000 x i32]* %10, i64 0, i64 0
  %200 = load i32, i32* %199, align 16
  %201 = icmp eq i32 %198, %200
  br i1 %201, label %202, label %208

202:                                              ; preds = %194
  %203 = load i32, i32* %4, align 4
  %204 = sext i32 %203 to i64
  %205 = getelementptr inbounds [1000 x [5 x i8]], [1000 x [5 x i8]]* %8, i64 0, i64 %204
  %206 = getelementptr inbounds [5 x i8], [5 x i8]* %205, i64 0, i64 0
  %207 = call i32 @puts(i8* %206)
  br label %209

208:                                              ; preds = %194
  br label %213

209:                                              ; preds = %202
  br label %210

210:                                              ; preds = %209
  %211 = load i32, i32* %4, align 4
  %212 = add nsw i32 %211, 1
  store i32 %212, i32* %4, align 4
  br label %194

213:                                              ; preds = %208
  br label %214

214:                                              ; preds = %213, %184
  %215 = load i32, i32* %1, align 4
  ret i32 %215
}

declare dso_local i32 @__isoc99_scanf(i8*, ...) #1

declare dso_local i32 @gets(...) #1

; Function Attrs: nounwind readonly
declare dso_local i32 @strcmp(i8*, i8*) #2

; Function Attrs: nounwind
declare dso_local i8* @strcpy(i8*, i8*) #3

declare dso_local i32 @printf(i8*, ...) #1

declare dso_local i32 @puts(i8*) #1


!llvm.module.flags = !{!0}
!llvm.ident = !{!1}

!0 = !{i32 1, !"wchar_size", i32 4}
!1 = !{!"clang version 10.0.0-4ubuntu1 "}
